target datalayout = "e-m:e-p270:32:32-p271:32:32-p272:64:64-i64:64-i128:128-f80:128-n8:16:32:64-S128"
target triple = "x86_64-pc-linux-gnu"

%struct.AVFilterContext = type { ptr, ptr, ptr, ptr, ptr, i32, ptr, ptr, i32, ptr, ptr, i32, i32, ptr, ptr, ptr, ptr, i32, ptr, i32, i32 }
%struct.ASuperCutContext = type { ptr, double, double, double, i32, i32, i32, [10 x %struct.BiquadCoeffs], ptr, ptr }
%struct.BiquadCoeffs = type { double, double, double, double, double }
%struct.ThreadData = type { ptr, ptr }
%struct.AVChannelLayout = type { i32, i32, %union.anon.1, ptr }
%union.anon.1 = type { i64 }
%struct.AVRational = type { i32, i32 }
%struct.AVFrame = type { [8 x ptr], [8 x i32], ptr, i32, i32, i32, i32, i32, %struct.AVRational, i64, i64, %struct.AVRational, i32, ptr, i32, i32, [8 x ptr], ptr, i32, ptr, i32, i32, i32, i32, i32, i32, i32, i64, ptr, i32, ptr, ptr, i64, i64, i64, i64, ptr, %struct.AVChannelLayout, i64 }

; Function Attrs: nounwind uwtable
define internal i32 @filter_channels_fltp(ptr noundef %0, ptr noundef %1, i32 noundef %2, i32 noundef %3) #1 {
  %5 = alloca ptr, align 8
  %6 = alloca ptr, align 8
  %7 = alloca i32, align 4
  %8 = alloca i32, align 4
  %9 = alloca ptr, align 8
  %10 = alloca ptr, align 8
  %11 = alloca ptr, align 8
  %12 = alloca ptr, align 8
  %13 = alloca i32, align 4
  %14 = alloca i32, align 4
  %15 = alloca double, align 8
  %16 = alloca i32, align 4
  %17 = alloca i32, align 4
  %18 = alloca ptr, align 8
  %19 = alloca ptr, align 8
  %20 = alloca i32, align 4
  %21 = alloca ptr, align 8
  %22 = alloca float, align 4
  %23 = alloca float, align 4
  %24 = alloca float, align 4
  %25 = alloca float, align 4
  %26 = alloca float, align 4
  %27 = alloca ptr, align 8
  %28 = alloca i32, align 4
  %29 = alloca float, align 4
  %30 = alloca float, align 4
  store ptr %0, ptr %5, align 8, !tbaa !4
  store ptr %1, ptr %6, align 8, !tbaa !55
  store i32 %2, ptr %7, align 4, !tbaa !25
  store i32 %3, ptr %8, align 4, !tbaa !25
  call void @llvm.lifetime.start.p0(i64 8, ptr %9) #6
  %31 = load ptr, ptr %5, align 8, !tbaa !4
  %32 = getelementptr inbounds nuw %struct.AVFilterContext, ptr %31, i32 0, i32 9
  %33 = load ptr, ptr %32, align 8, !tbaa !9
  store ptr %33, ptr %9, align 8, !tbaa !22
  call void @llvm.lifetime.start.p0(i64 8, ptr %10) #6
  %34 = load ptr, ptr %6, align 8, !tbaa !55
  store ptr %34, ptr %10, align 8, !tbaa !56
  call void @llvm.lifetime.start.p0(i64 8, ptr %11) #6
  %35 = load ptr, ptr %10, align 8, !tbaa !56
  %36 = getelementptr inbounds nuw %struct.ThreadData, ptr %35, i32 0, i32 1
  %37 = load ptr, ptr %36, align 8, !tbaa !50
  store ptr %37, ptr %11, align 8, !tbaa !28
  call void @llvm.lifetime.start.p0(i64 8, ptr %12) #6
  %38 = load ptr, ptr %10, align 8, !tbaa !56
  %39 = getelementptr inbounds nuw %struct.ThreadData, ptr %38, i32 0, i32 0
  %40 = load ptr, ptr %39, align 8, !tbaa !48
  store ptr %40, ptr %12, align 8, !tbaa !28
  call void @llvm.lifetime.start.p0(i64 4, ptr %13) #6
  %41 = load ptr, ptr %12, align 8, !tbaa !28
  %42 = getelementptr inbounds nuw %struct.AVFrame, ptr %41, i32 0, i32 37
  %43 = getelementptr inbounds nuw %struct.AVChannelLayout, ptr %42, i32 0, i32 1
  %44 = load i32, ptr %43, align 4, !tbaa !58
  %45 = load i32, ptr %7, align 4, !tbaa !25
  %46 = mul nsw i32 %44, %45
  %47 = load i32, ptr %8, align 4, !tbaa !25
  %48 = sdiv i32 %46, %47
  store i32 %48, ptr %13, align 4, !tbaa !25
  call void @llvm.lifetime.start.p0(i64 4, ptr %14) #6
  %49 = load ptr, ptr %12, align 8, !tbaa !28
  %50 = getelementptr inbounds nuw %struct.AVFrame, ptr %49, i32 0, i32 37
  %51 = getelementptr inbounds nuw %struct.AVChannelLayout, ptr %50, i32 0, i32 1
  %52 = load i32, ptr %51, align 4, !tbaa !58
  %53 = load i32, ptr %7, align 4, !tbaa !25
  %54 = add nsw i32 %53, 1
  %55 = mul nsw i32 %52, %54
  %56 = load i32, ptr %8, align 4, !tbaa !25
  %57 = sdiv i32 %55, %56
  store i32 %57, ptr %14, align 4, !tbaa !25
  call void @llvm.lifetime.start.p0(i64 8, ptr %15) #6
  %58 = load ptr, ptr %9, align 8, !tbaa !22
  %59 = getelementptr inbounds nuw %struct.ASuperCutContext, ptr %58, i32 0, i32 2
  %60 = load double, ptr %59, align 8, !tbaa !59
  store double %60, ptr %15, align 8, !tbaa !60
  call void @llvm.lifetime.start.p0(i64 4, ptr %16) #6
  %61 = load i32, ptr %13, align 4, !tbaa !25
  store i32 %61, ptr %16, align 4, !tbaa !25
  br label %62

62:                                               ; preds = %195, %4
  %63 = load i32, ptr %16, align 4, !tbaa !25
  %64 = load i32, ptr %14, align 4, !tbaa !25
  %65 = icmp slt i32 %63, %64
  br i1 %65, label %67, label %66

66:                                               ; preds = %62
  store i32 2, ptr %17, align 4
  call void @llvm.lifetime.end.p0(i64 4, ptr %16) #6
  br label %198

67:                                               ; preds = %62
  call void @llvm.lifetime.start.p0(i64 8, ptr %18) #6
  %68 = load ptr, ptr %12, align 8, !tbaa !28
  %69 = getelementptr inbounds nuw %struct.AVFrame, ptr %68, i32 0, i32 2
  %70 = load ptr, ptr %69, align 8, !tbaa !61
  %71 = load i32, ptr %16, align 4, !tbaa !25
  %72 = sext i32 %71 to i64
  %73 = getelementptr inbounds ptr, ptr %70, i64 %72
  %74 = load ptr, ptr %73, align 8, !tbaa !24
  store ptr %74, ptr %18, align 8, !tbaa !62
  call void @llvm.lifetime.start.p0(i64 8, ptr %19) #6
  %75 = load ptr, ptr %11, align 8, !tbaa !28
  %76 = getelementptr inbounds nuw %struct.AVFrame, ptr %75, i32 0, i32 2
  %77 = load ptr, ptr %76, align 8, !tbaa !61
  %78 = load i32, ptr %16, align 4, !tbaa !25
  %79 = sext i32 %78 to i64
  %80 = getelementptr inbounds ptr, ptr %77, i64 %79
  %81 = load ptr, ptr %80, align 8, !tbaa !24
  store ptr %81, ptr %19, align 8, !tbaa !62
  call void @llvm.lifetime.start.p0(i64 4, ptr %20) #6
  store i32 0, ptr %20, align 4, !tbaa !25
  br label %82

82:                                               ; preds = %191, %67
  %83 = load i32, ptr %20, align 4, !tbaa !25
  %84 = load ptr, ptr %9, align 8, !tbaa !22
  %85 = getelementptr inbounds nuw %struct.ASuperCutContext, ptr %84, i32 0, i32 5
  %86 = load i32, ptr %85, align 4, !tbaa !64
  %87 = icmp slt i32 %83, %86
  br i1 %87, label %89, label %88

88:                                               ; preds = %82
  store i32 5, ptr %17, align 4
  call void @llvm.lifetime.end.p0(i64 4, ptr %20) #6
  br label %194

89:                                               ; preds = %82
  call void @llvm.lifetime.start.p0(i64 8, ptr %21) #6
  %90 = load ptr, ptr %9, align 8, !tbaa !22
  %91 = getelementptr inbounds nuw %struct.ASuperCutContext, ptr %90, i32 0, i32 7
  %92 = load i32, ptr %20, align 4, !tbaa !25
  %93 = sext i32 %92 to i64
  %94 = getelementptr inbounds [10 x %struct.BiquadCoeffs], ptr %91, i64 0, i64 %93
  store ptr %94, ptr %21, align 8, !tbaa !65
  call void @llvm.lifetime.start.p0(i64 4, ptr %22) #6
  %95 = load ptr, ptr %21, align 8, !tbaa !65
  %96 = getelementptr inbounds nuw %struct.BiquadCoeffs, ptr %95, i32 0, i32 0
  %97 = load double, ptr %96, align 8, !tbaa !67
  %98 = fptrunc nsz double %97 to float
  store float %98, ptr %22, align 4, !tbaa !69
  call void @llvm.lifetime.start.p0(i64 4, ptr %23) #6
  %99 = load ptr, ptr %21, align 8, !tbaa !65
  %100 = getelementptr inbounds nuw %struct.BiquadCoeffs, ptr %99, i32 0, i32 1
  %101 = load double, ptr %100, align 8, !tbaa !71
  %102 = fptrunc nsz double %101 to float
  store float %102, ptr %23, align 4, !tbaa !69
  call void @llvm.lifetime.start.p0(i64 4, ptr %24) #6
  %103 = load ptr, ptr %21, align 8, !tbaa !65
  %104 = getelementptr inbounds nuw %struct.BiquadCoeffs, ptr %103, i32 0, i32 2
  %105 = load double, ptr %104, align 8, !tbaa !72
  %106 = fptrunc nsz double %105 to float
  store float %106, ptr %24, align 4, !tbaa !69
  call void @llvm.lifetime.start.p0(i64 4, ptr %25) #6
  %107 = load ptr, ptr %21, align 8, !tbaa !65
  %108 = getelementptr inbounds nuw %struct.BiquadCoeffs, ptr %107, i32 0, i32 3
  %109 = load double, ptr %108, align 8, !tbaa !73
  %110 = fptrunc nsz double %109 to float
  store float %110, ptr %25, align 4, !tbaa !69
  call void @llvm.lifetime.start.p0(i64 4, ptr %26) #6
  %111 = load ptr, ptr %21, align 8, !tbaa !65
  %112 = getelementptr inbounds nuw %struct.BiquadCoeffs, ptr %111, i32 0, i32 4
  %113 = load double, ptr %112, align 8, !tbaa !74
  %114 = fptrunc nsz double %113 to float
  store float %114, ptr %26, align 4, !tbaa !69
  call void @llvm.lifetime.start.p0(i64 8, ptr %27) #6
  %115 = load ptr, ptr %9, align 8, !tbaa !22
  %116 = getelementptr inbounds nuw %struct.ASuperCutContext, ptr %115, i32 0, i32 8
  %117 = load ptr, ptr %116, align 8, !tbaa !54
  %118 = getelementptr inbounds nuw %struct.AVFrame, ptr %117, i32 0, i32 2
  %119 = load ptr, ptr %118, align 8, !tbaa !61
  %120 = load i32, ptr %16, align 4, !tbaa !25
  %121 = sext i32 %120 to i64
  %122 = getelementptr inbounds ptr, ptr %119, i64 %121
  %123 = load ptr, ptr %122, align 8, !tbaa !24
  %124 = load i32, ptr %20, align 4, !tbaa !25
  %125 = mul nsw i32 %124, 2
  %126 = sext i32 %125 to i64
  %127 = getelementptr inbounds float, ptr %123, i64 %126
  store ptr %127, ptr %27, align 8, !tbaa !62
  call void @llvm.lifetime.start.p0(i64 4, ptr %28) #6
  store i32 0, ptr %28, align 4, !tbaa !25
  br label %128

128:                                              ; preds = %187, %89
  %129 = load i32, ptr %28, align 4, !tbaa !25
  %130 = load ptr, ptr %12, align 8, !tbaa !28
  %131 = getelementptr inbounds nuw %struct.AVFrame, ptr %130, i32 0, i32 5
  %132 = load i32, ptr %131, align 8, !tbaa !42
  %133 = icmp slt i32 %129, %132
  br i1 %133, label %135, label %134

134:                                              ; preds = %128
  store i32 8, ptr %17, align 4
  call void @llvm.lifetime.end.p0(i64 4, ptr %28) #6
  br label %190

135:                                              ; preds = %128
  call void @llvm.lifetime.start.p0(i64 4, ptr %29) #6
  %136 = load i32, ptr %20, align 4, !tbaa !25
  %137 = icmp ne i32 %136, 0
  br i1 %137, label %138, label %145

138:                                              ; preds = %135
  %139 = load ptr, ptr %19, align 8, !tbaa !62
  %140 = load i32, ptr %28, align 4, !tbaa !25
  %141 = sext i32 %140 to i64
  %142 = getelementptr inbounds float, ptr %139, i64 %141
  %143 = load float, ptr %142, align 4, !tbaa !69
  %144 = fpext nsz float %143 to double
  br label %154

145:                                              ; preds = %135
  %146 = load ptr, ptr %18, align 8, !tbaa !62
  %147 = load i32, ptr %28, align 4, !tbaa !25
  %148 = sext i32 %147 to i64
  %149 = getelementptr inbounds float, ptr %146, i64 %148
  %150 = load float, ptr %149, align 4, !tbaa !69
  %151 = fpext nsz float %150 to double
  %152 = load double, ptr %15, align 8, !tbaa !60
  %153 = fmul nsz double %151, %152
  br label %154

154:                                              ; preds = %145, %138
  %155 = phi nsz double [ %144, %138 ], [ %153, %145 ]
  %156 = fptrunc nsz double %155 to float
  store float %156, ptr %29, align 4, !tbaa !69
  call void @llvm.lifetime.start.p0(i64 4, ptr %30) #6
  %157 = load float, ptr %29, align 4, !tbaa !69
  %158 = load float, ptr %24, align 4, !tbaa !69
  %159 = load ptr, ptr %27, align 8, !tbaa !62
  %160 = getelementptr inbounds float, ptr %159, i64 0
  %161 = load float, ptr %160, align 4, !tbaa !69
  %162 = call nsz float @llvm.fmuladd.f32(float %157, float %158, float %161)
  store float %162, ptr %30, align 4, !tbaa !69
  %163 = load float, ptr %25, align 4, !tbaa !69
  %164 = load float, ptr %29, align 4, !tbaa !69
  %165 = load ptr, ptr %27, align 8, !tbaa !62
  %166 = getelementptr inbounds float, ptr %165, i64 1
  %167 = load float, ptr %166, align 4, !tbaa !69
  %168 = call nsz float @llvm.fmuladd.f32(float %163, float %164, float %167)
  %169 = load float, ptr %22, align 4, !tbaa !69
  %170 = load float, ptr %30, align 4, !tbaa !69
  %171 = call nsz float @llvm.fmuladd.f32(float %169, float %170, float %168)
  %172 = load ptr, ptr %27, align 8, !tbaa !62
  %173 = getelementptr inbounds float, ptr %172, i64 0
  store float %171, ptr %173, align 4, !tbaa !69
  %174 = load float, ptr %26, align 4, !tbaa !69
  %175 = load float, ptr %29, align 4, !tbaa !69
  %176 = load float, ptr %23, align 4, !tbaa !69
  %177 = load float, ptr %30, align 4, !tbaa !69
  %178 = fmul nsz float %176, %177
  %179 = call nsz float @llvm.fmuladd.f32(float %174, float %175, float %178)
  %180 = load ptr, ptr %27, align 8, !tbaa !62
  %181 = getelementptr inbounds float, ptr %180, i64 1
  store float %179, ptr %181, align 4, !tbaa !69
  %182 = load float, ptr %30, align 4, !tbaa !69
  %183 = load ptr, ptr %19, align 8, !tbaa !62
  %184 = load i32, ptr %28, align 4, !tbaa !25
  %185 = sext i32 %184 to i64
  %186 = getelementptr inbounds float, ptr %183, i64 %185
  store float %182, ptr %186, align 4, !tbaa !69
  call void @llvm.lifetime.end.p0(i64 4, ptr %30) #6
  call void @llvm.lifetime.end.p0(i64 4, ptr %29) #6
  br label %187

187:                                              ; preds = %154
  %188 = load i32, ptr %28, align 4, !tbaa !25
  %189 = add nsw i32 %188, 1
  store i32 %189, ptr %28, align 4, !tbaa !25
  br label %128, !llvm.loop !75

190:                                              ; preds = %134
  call void @llvm.lifetime.end.p0(i64 8, ptr %27) #6
  call void @llvm.lifetime.end.p0(i64 4, ptr %26) #6
  call void @llvm.lifetime.end.p0(i64 4, ptr %25) #6
  call void @llvm.lifetime.end.p0(i64 4, ptr %24) #6
  call void @llvm.lifetime.end.p0(i64 4, ptr %23) #6
  call void @llvm.lifetime.end.p0(i64 4, ptr %22) #6
  call void @llvm.lifetime.end.p0(i64 8, ptr %21) #6
  br label %191

191:                                              ; preds = %190
  %192 = load i32, ptr %20, align 4, !tbaa !25
  %193 = add nsw i32 %192, 1
  store i32 %193, ptr %20, align 4, !tbaa !25
  br label %82, !llvm.loop !77

194:                                              ; preds = %88
  call void @llvm.lifetime.end.p0(i64 8, ptr %19) #6
  call void @llvm.lifetime.end.p0(i64 8, ptr %18) #6
  br label %195

195:                                              ; preds = %194
  %196 = load i32, ptr %16, align 4, !tbaa !25
  %197 = add nsw i32 %196, 1
  store i32 %197, ptr %16, align 4, !tbaa !25
  br label %62, !llvm.loop !78

198:                                              ; preds = %66
  store i32 1, ptr %17, align 4
  call void @llvm.lifetime.end.p0(i64 8, ptr %15) #6
  call void @llvm.lifetime.end.p0(i64 4, ptr %14) #6
  call void @llvm.lifetime.end.p0(i64 4, ptr %13) #6
  call void @llvm.lifetime.end.p0(i64 8, ptr %12) #6
  call void @llvm.lifetime.end.p0(i64 8, ptr %11) #6
  call void @llvm.lifetime.end.p0(i64 8, ptr %10) #6
  call void @llvm.lifetime.end.p0(i64 8, ptr %9) #6
  ret i32 0
}